target datalayout = "e-m:e-p270:32:32-p271:32:32-p272:64:64-i64:64-i128:128-f80:128-n8:16:32:64-S128"
target triple = "x86_64-pc-linux-gnu"

%struct._php_ps_globals = type { ptr, ptr, ptr, ptr, ptr, i64, ptr, ptr, ptr, i8, i8, ptr, ptr, ptr, i32, ptr, i32, i32, %struct._php_random_status_state_pcgoneseq128xslrr64, %struct._php_random_algo_with_state, i64, i64, i64, i64, %struct.anon, ptr, i8, i8, i8, i8, i8, i8, i8, i8, ptr, %struct._zval_struct, i64, i64, ptr, ptr, ptr, i64, double, i8, i8, i8, i8, i8, i8, ptr }
%struct._php_random_status_state_pcgoneseq128xslrr64 = type { i128 }
%struct._php_random_algo_with_state = type { ptr, ptr }
%struct.anon = type { %struct._zval_struct, %struct._zval_struct, %struct._zval_struct, %struct._zval_struct, %struct._zval_struct, %struct._zval_struct, %struct._zval_struct, %struct._zval_struct, %struct._zval_struct }
%struct._zval_struct = type { %union._zend_value, %union.anon, %union.anon.3 }
%union._zend_value = type { i64 }
%union.anon = type { i32 }
%union.anon.3 = type { i32 }
%struct._zend_refcounted_h = type { i32, %union.anon.4 }
%union.anon.4 = type { i32 }
%struct._zend_string = type { %struct._zend_refcounted_h, i64, i64, [1 x i8] }

@ps_globals = global %struct._php_ps_globals zeroinitializer, align 16
@.str.246 = private unnamed_addr constant [64 x i8] c"session.upload_progress.freq must be greater than or equal to 0\00", align 1
@.str.247 = private unnamed_addr constant [65 x i8] c"session.upload_progress.freq must be less than or equal to 100%%\00", align 1

; Function Attrs: nounwind uwtable
define internal i32 @OnUpdateRfc1867Freq(ptr noundef %0, ptr noundef %1, ptr noundef %2, ptr noundef %3, ptr noundef %4, i32 noundef %5) #0 {
  %7 = alloca i32, align 4
  %8 = alloca ptr, align 8
  %9 = alloca ptr, align 8
  %10 = alloca ptr, align 8
  %11 = alloca ptr, align 8
  %12 = alloca ptr, align 8
  %13 = alloca i32, align 4
  %14 = alloca i32, align 4
  store ptr %0, ptr %8, align 8
  store ptr %1, ptr %9, align 8
  store ptr %2, ptr %10, align 8
  store ptr %3, ptr %11, align 8
  store ptr %4, ptr %12, align 8
  store i32 %5, ptr %13, align 4
  %15 = load ptr, ptr %9, align 8
  %16 = getelementptr inbounds %struct._zend_string, ptr %15, i32 0, i32 3
  %17 = getelementptr inbounds [1 x i8], ptr %16, i64 0, i64 0
  %18 = call i64 @atoll(ptr noundef %17) #16
  %19 = trunc i64 %18 to i32
  store i32 %19, ptr %14, align 4
  %20 = load i32, ptr %14, align 4
  %21 = icmp slt i32 %20, 0
  br i1 %21, label %22, label %23

22:                                               ; preds = %6
  call void (ptr, i32, ptr, ...) @php_error_docref(ptr noundef null, i32 noundef 2, ptr noundef @.str.246)
  store i32 -1, ptr %7, align 4
  br label %51

23:                                               ; preds = %6
  %24 = load ptr, ptr %9, align 8
  %25 = getelementptr inbounds %struct._zend_string, ptr %24, i32 0, i32 2
  %26 = load i64, ptr %25, align 8
  %27 = icmp ugt i64 %26, 0
  br i1 %27, label %28, label %47

28:                                               ; preds = %23
  %29 = load ptr, ptr %9, align 8
  %30 = getelementptr inbounds %struct._zend_string, ptr %29, i32 0, i32 3
  %31 = load ptr, ptr %9, align 8
  %32 = getelementptr inbounds %struct._zend_string, ptr %31, i32 0, i32 2
  %33 = load i64, ptr %32, align 8
  %34 = sub i64 %33, 1
  %35 = getelementptr inbounds [1 x i8], ptr %30, i64 0, i64 %34
  %36 = load i8, ptr %35, align 1
  %37 = sext i8 %36 to i32
  %38 = icmp eq i32 %37, 37
  br i1 %38, label %39, label %47

39:                                               ; preds = %28
  %40 = load i32, ptr %14, align 4
  %41 = icmp sgt i32 %40, 100
  br i1 %41, label %42, label %43

42:                                               ; preds = %39
  call void (ptr, i32, ptr, ...) @php_error_docref(ptr noundef null, i32 noundef 2, ptr noundef @.str.247)
  store i32 -1, ptr %7, align 4
  br label %51

43:                                               ; preds = %39
  %44 = load i32, ptr %14, align 4
  %45 = sub nsw i32 0, %44
  %46 = sext i32 %45 to i64
  store i64 %46, ptr getelementptr inbounds (%struct._php_ps_globals, ptr @ps_globals, i32 0, i32 41), align 16
  br label %50

47:                                               ; preds = %28, %23
  %48 = load i32, ptr %14, align 4
  %49 = sext i32 %48 to i64
  store i64 %49, ptr getelementptr inbounds (%struct._php_ps_globals, ptr @ps_globals, i32 0, i32 41), align 16
  br label %50

50:                                               ; preds = %47, %43
  store i32 0, ptr %7, align 4
  br label %51

51:                                               ; preds = %50, %42, %22
  %52 = load i32, ptr %7, align 4
  ret i32 %52
}