; Function Attrs: nounwind uwtable
define internal noundef i32 @OnUpdateRfc1867Freq(ptr nocapture readnone %0, ptr nocapture noundef readonly %1, ptr nocapture readnone %2, ptr nocapture readnone %3, ptr nocapture readnone %4, i32 %5) #0 {
  %7 = getelementptr inbounds i8, ptr %1, i64 24
  %8 = tail call i64 @atoll(ptr nocapture noundef nonnull %7) #26
  %9 = trunc i64 %8 to i32
  %10 = icmp slt i32 %9, 0
  br i1 %10, label %11, label %12

11:                                               ; preds = %6
  tail call void (ptr, i32, ptr, ...) @php_error_docref(ptr noundef null, i32 noundef 2, ptr noundef nonnull @.str.246) #23
  br label %28

12:                                               ; preds = %6
  %13 = getelementptr inbounds i8, ptr %1, i64 16
  %14 = load i64, ptr %13, align 8
  %.not = icmp eq i64 %14, 0
  br i1 %.not, label %25, label %15

15:                                               ; preds = %12
  %16 = add i64 %14, -1
  %17 = getelementptr inbounds [1 x i8], ptr %7, i64 0, i64 %16
  %18 = load i8, ptr %17, align 1
  %19 = icmp eq i8 %18, 37
  br i1 %19, label %20, label %25

20:                                               ; preds = %15
  %21 = icmp ugt i32 %9, 100
  br i1 %21, label %22, label %23

22:                                               ; preds = %20
  tail call void (ptr, i32, ptr, ...) @php_error_docref(ptr noundef null, i32 noundef 2, ptr noundef nonnull @.str.247) #23
  br label %28

23:                                               ; preds = %20
  %.neg = mul i64 %8, -4294967296
  %24 = ashr exact i64 %.neg, 32
  br label %27

25:                                               ; preds = %15, %12
  %26 = and i64 %8, 4294967295
  br label %27

27:                                               ; preds = %25, %23
  %storemerge = phi i64 [ %26, %25 ], [ %24, %23 ]
  store i64 %storemerge, ptr getelementptr inbounds (%struct._php_ps_globals, ptr @ps_globals, i64 0, i32 41), align 16
  br label %28

28:                                               ; preds = %27, %22, %11
  %.0 = phi i32 [ -1, %11 ], [ -1, %22 ], [ 0, %27 ]
  ret i32 %.0
}